; Function Attrs: mustprogress uwtable
define hidden noundef zeroext i1 @_ZN10duckdb_re26Regexp10ParseState9PushCaretEv(ptr noundef nonnull align 8 captures(none) dereferenceable(48) %0) local_unnamed_addr #9 align 2 personality ptr @__gxx_personality_v0 {
  %2 = load i32, ptr %0, align 8, !tbaa !7
  %3 = and i32 %2, 16
  %.not = icmp eq i32 %3, 0
  %4 = tail call noalias noundef nonnull dereferenceable(40) ptr @_Znwm(i64 noundef 40) #33
  br i1 %.not, label %8, label %5

5:                                                ; preds = %1
  invoke void @_ZN10duckdb_re26RegexpC1ENS_8RegexpOpENS0_10ParseFlagsE(ptr noundef nonnull align 8 dereferenceable(40) %4, i32 noundef 18, i32 noundef %2)
          to label %_ZN10duckdb_re26Regexp10ParseState12PushSimpleOpENS_8RegexpOpE.exit unwind label %6

common.resume:                                    ; preds = %9, %6
  %common.resume.op = phi { ptr, i32 } [ %7, %6 ], [ %10, %9 ]
  tail call void @_ZdlPv(ptr noundef nonnull %4) #30
  resume { ptr, i32 } %common.resume.op

6:                                                ; preds = %5
  %7 = landingpad { ptr, i32 }
          cleanup
  br label %common.resume

8:                                                ; preds = %1
  invoke void @_ZN10duckdb_re26RegexpC1ENS_8RegexpOpENS0_10ParseFlagsE(ptr noundef nonnull align 8 dereferenceable(40) %4, i32 noundef 14, i32 noundef %2)
          to label %_ZN10duckdb_re26Regexp10ParseState12PushSimpleOpENS_8RegexpOpE.exit unwind label %9

9:                                                ; preds = %8
  %10 = landingpad { ptr, i32 }
          cleanup
  br label %common.resume

_ZN10duckdb_re26Regexp10ParseState12PushSimpleOpENS_8RegexpOpE.exit: ; preds = %8, %5
  %11 = tail call noundef zeroext i1 @_ZN10duckdb_re26Regexp10ParseState10PushRegexpEPS0_(ptr noundef nonnull align 8 dereferenceable(48) %0, ptr noundef nonnull %4)
  ret i1 true
}